ARM GAS  /tmp/ccmF7I2h.s 			page 1


   1              		.cpu cortex-m4
   2              		.eabi_attribute 27, 1
   3              		.eabi_attribute 28, 1
   4              		.eabi_attribute 20, 1
   5              		.eabi_attribute 21, 1
   6              		.eabi_attribute 23, 3
   7              		.eabi_attribute 24, 1
   8              		.eabi_attribute 25, 1
   9              		.eabi_attribute 26, 1
  10              		.eabi_attribute 30, 1
  11              		.eabi_attribute 34, 1
  12              		.eabi_attribute 18, 4
  13              		.file	"logic_main.c"
  14              		.text
  15              	.Ltext0:
  16              		.cfi_sections	.debug_frame
  17              		.section	.text.init_test_LD5,"ax",%progbits
  18              		.align	1
  19              		.global	init_test_LD5
  20              		.syntax unified
  21              		.thumb
  22              		.thumb_func
  23              		.fpu fpv4-sp-d16
  25              	init_test_LD5:
  26              	.LFB127:
  27              		.file 1 "Src/logic_main.c"
   1:Src/logic_main.c **** 
   2:Src/logic_main.c **** #include "main.h"
   3:Src/logic_main.c **** #include "stm32f3xx_hal.h"
   4:Src/logic_main.c **** #include "usart.h"
   5:Src/logic_main.c **** #include "gpio.h"
   6:Src/logic_main.c **** #include "stm32f3xx_hal_tim.h"
   7:Src/logic_main.c **** 
   8:Src/logic_main.c **** 
   9:Src/logic_main.c **** void init_test_LD5(void);
  10:Src/logic_main.c **** 
  11:Src/logic_main.c **** GPIO_InitTypeDef GPIO_InitStruct;
  12:Src/logic_main.c **** 
  13:Src/logic_main.c **** int main(void){
  14:Src/logic_main.c ****     HAL_Init();
  15:Src/logic_main.c **** 
  16:Src/logic_main.c ****     SystemClock_Config();
  17:Src/logic_main.c **** 
  18:Src/logic_main.c ****     init_test_LD5();
  19:Src/logic_main.c **** 
  20:Src/logic_main.c ****     while(1){
  21:Src/logic_main.c ****         HAL_GPIO_TogglePin(GPIOA, GPIO_PIN_5);
  22:Src/logic_main.c ****         HAL_Delay(1000);
  23:Src/logic_main.c ****     }
  24:Src/logic_main.c ****     return 0;
  25:Src/logic_main.c **** }
  26:Src/logic_main.c **** 
  27:Src/logic_main.c **** void init_test_LD5(){
  28              		.loc 1 27 0
  29              		.cfi_startproc
  30              		@ args = 0, pretend = 0, frame = 8
  31              		@ frame_needed = 0, uses_anonymous_args = 0
ARM GAS  /tmp/ccmF7I2h.s 			page 2


  32 0000 00B5     		push	{lr}
  33              	.LCFI0:
  34              		.cfi_def_cfa_offset 4
  35              		.cfi_offset 14, -4
  36 0002 83B0     		sub	sp, sp, #12
  37              	.LCFI1:
  38              		.cfi_def_cfa_offset 16
  39              	.LBB2:
  28:Src/logic_main.c ****     __HAL_RCC_GPIOA_CLK_ENABLE();
  40              		.loc 1 28 0
  41 0004 0D4B     		ldr	r3, .L3
  42 0006 5A69     		ldr	r2, [r3, #20]
  43 0008 42F40032 		orr	r2, r2, #131072
  44 000c 5A61     		str	r2, [r3, #20]
  45 000e 5B69     		ldr	r3, [r3, #20]
  46 0010 03F40033 		and	r3, r3, #131072
  47 0014 0193     		str	r3, [sp, #4]
  48 0016 019B     		ldr	r3, [sp, #4]
  49              	.LBE2:
  29:Src/logic_main.c **** 
  30:Src/logic_main.c ****     /*Configure GPIO pin : PA5 - LD2 LED */
  31:Src/logic_main.c ****     GPIO_InitStruct.Pin = GPIO_PIN_5;
  50              		.loc 1 31 0
  51 0018 0949     		ldr	r1, .L3+4
  52 001a 2023     		movs	r3, #32
  53 001c 0B60     		str	r3, [r1]
  32:Src/logic_main.c ****     GPIO_InitStruct.Mode = GPIO_MODE_OUTPUT_PP;
  54              		.loc 1 32 0
  55 001e 0123     		movs	r3, #1
  56 0020 4B60     		str	r3, [r1, #4]
  33:Src/logic_main.c ****     GPIO_InitStruct.Pull = GPIO_NOPULL;
  57              		.loc 1 33 0
  58 0022 0023     		movs	r3, #0
  59 0024 8B60     		str	r3, [r1, #8]
  34:Src/logic_main.c ****     GPIO_InitStruct.Speed = GPIO_SPEED_FREQ_LOW;
  60              		.loc 1 34 0
  61 0026 CB60     		str	r3, [r1, #12]
  35:Src/logic_main.c ****     HAL_GPIO_Init(GPIOA, &GPIO_InitStruct);
  62              		.loc 1 35 0
  63 0028 4FF09040 		mov	r0, #1207959552
  64 002c FFF7FEFF 		bl	HAL_GPIO_Init
  65              	.LVL0:
  36:Src/logic_main.c **** 
  37:Src/logic_main.c ****     HAL_NVIC_EnableIRQ(EXTI15_10_IRQn);
  66              		.loc 1 37 0
  67 0030 2820     		movs	r0, #40
  68 0032 FFF7FEFF 		bl	HAL_NVIC_EnableIRQ
  69              	.LVL1:
  38:Src/logic_main.c **** }
  70              		.loc 1 38 0
  71 0036 03B0     		add	sp, sp, #12
  72              	.LCFI2:
  73              		.cfi_def_cfa_offset 4
  74              		@ sp needed
  75 0038 5DF804FB 		ldr	pc, [sp], #4
  76              	.L4:
  77              		.align	2
ARM GAS  /tmp/ccmF7I2h.s 			page 3


  78              	.L3:
  79 003c 00100240 		.word	1073876992
  80 0040 00000000 		.word	GPIO_InitStruct
  81              		.cfi_endproc
  82              	.LFE127:
  84              		.section	.text.main,"ax",%progbits
  85              		.align	1
  86              		.global	main
  87              		.syntax unified
  88              		.thumb
  89              		.thumb_func
  90              		.fpu fpv4-sp-d16
  92              	main:
  93              	.LFB126:
  13:Src/logic_main.c ****     HAL_Init();
  94              		.loc 1 13 0
  95              		.cfi_startproc
  96              		@ Volatile: function does not return.
  97              		@ args = 0, pretend = 0, frame = 0
  98              		@ frame_needed = 0, uses_anonymous_args = 0
  99 0000 08B5     		push	{r3, lr}
 100              	.LCFI3:
 101              		.cfi_def_cfa_offset 8
 102              		.cfi_offset 3, -8
 103              		.cfi_offset 14, -4
  14:Src/logic_main.c **** 
 104              		.loc 1 14 0
 105 0002 FFF7FEFF 		bl	HAL_Init
 106              	.LVL2:
  16:Src/logic_main.c **** 
 107              		.loc 1 16 0
 108 0006 FFF7FEFF 		bl	SystemClock_Config
 109              	.LVL3:
  18:Src/logic_main.c **** 
 110              		.loc 1 18 0
 111 000a FFF7FEFF 		bl	init_test_LD5
 112              	.LVL4:
 113              	.L6:
  21:Src/logic_main.c ****         HAL_Delay(1000);
 114              		.loc 1 21 0 discriminator 1
 115 000e 2021     		movs	r1, #32
 116 0010 4FF09040 		mov	r0, #1207959552
 117 0014 FFF7FEFF 		bl	HAL_GPIO_TogglePin
 118              	.LVL5:
  22:Src/logic_main.c ****     }
 119              		.loc 1 22 0 discriminator 1
 120 0018 4FF47A70 		mov	r0, #1000
 121 001c FFF7FEFF 		bl	HAL_Delay
 122              	.LVL6:
 123 0020 F5E7     		b	.L6
 124              		.cfi_endproc
 125              	.LFE126:
 127              		.comm	GPIO_InitStruct,20,4
 128              		.text
 129              	.Letext0:
 130              		.file 2 "/home/logic/STM32Toolchain/gcc-arm/arm-none-eabi/include/machine/_default_types.h"
 131              		.file 3 "/home/logic/STM32Toolchain/gcc-arm/arm-none-eabi/include/sys/_stdint.h"
ARM GAS  /tmp/ccmF7I2h.s 			page 4


 132              		.file 4 "Drivers/CMSIS/Include/core_cm4.h"
 133              		.file 5 "Drivers/CMSIS/Device/ST/STM32F3xx/Include/system_stm32f3xx.h"
 134              		.file 6 "Drivers/CMSIS/Device/ST/STM32F3xx/Include/stm32f303xe.h"
 135              		.file 7 "/home/logic/STM32Toolchain/gcc-arm/arm-none-eabi/include/sys/lock.h"
 136              		.file 8 "/home/logic/STM32Toolchain/gcc-arm/arm-none-eabi/include/sys/_types.h"
 137              		.file 9 "/home/logic/STM32Toolchain/gcc-arm/lib/gcc/arm-none-eabi/7.3.1/include/stddef.h"
 138              		.file 10 "/home/logic/STM32Toolchain/gcc-arm/arm-none-eabi/include/sys/reent.h"
 139              		.file 11 "Drivers/STM32F3xx_HAL_Driver/Inc/stm32f3xx_hal_def.h"
 140              		.file 12 "Drivers/STM32F3xx_HAL_Driver/Inc/stm32f3xx_hal_gpio.h"
 141              		.file 13 "Drivers/STM32F3xx_HAL_Driver/Inc/stm32f3xx_hal_dma.h"
 142              		.file 14 "Drivers/STM32F3xx_HAL_Driver/Inc/stm32f3xx_hal_uart.h"
 143              		.file 15 "Drivers/STM32F3xx_HAL_Driver/Inc/stm32f3xx_hal.h"
 144              		.file 16 "Inc/usart.h"
 145              		.file 17 "Drivers/STM32F3xx_HAL_Driver/Inc/stm32f3xx_hal_cortex.h"
ARM GAS  /tmp/ccmF7I2h.s 			page 5

