ARM GAS  /tmp/cc7hfcjF.s 			page 1


   1              		.cpu cortex-m4
   2              		.eabi_attribute 27, 1
   3              		.eabi_attribute 28, 1
   4              		.eabi_attribute 20, 1
   5              		.eabi_attribute 21, 1
   6              		.eabi_attribute 23, 3
   7              		.eabi_attribute 24, 1
   8              		.eabi_attribute 25, 1
   9              		.eabi_attribute 26, 1
  10              		.eabi_attribute 30, 1
  11              		.eabi_attribute 34, 1
  12              		.eabi_attribute 18, 4
  13              		.file	"logic_main.c"
  14              		.text
  15              	.Ltext0:
  16              		.cfi_sections	.debug_frame
  17              		.section	.text.init_test_B1,"ax",%progbits
  18              		.align	1
  19              		.global	init_test_B1
  20              		.syntax unified
  21              		.thumb
  22              		.thumb_func
  23              		.fpu fpv4-sp-d16
  25              	init_test_B1:
  26              	.LFB127:
  27              		.file 1 "Src/logic_main.c"
   1:Src/logic_main.c **** 
   2:Src/logic_main.c **** #include "main.h"
   3:Src/logic_main.c **** #include "stm32f3xx_hal.h"
   4:Src/logic_main.c **** #include "usart.h"
   5:Src/logic_main.c **** #include "gpio.h"
   6:Src/logic_main.c **** #include "stm32f3xx_hal_tim.h"
   7:Src/logic_main.c **** 
   8:Src/logic_main.c **** void init_test_B1(void);
   9:Src/logic_main.c **** void init_test_LD5(void);
  10:Src/logic_main.c **** 
  11:Src/logic_main.c **** GPIO_InitTypeDef GPIO_InitStruct;
  12:Src/logic_main.c **** 
  13:Src/logic_main.c **** int main(void){
  14:Src/logic_main.c ****     HAL_Init();
  15:Src/logic_main.c **** 
  16:Src/logic_main.c ****     SystemClock_Config();
  17:Src/logic_main.c **** 
  18:Src/logic_main.c ****     init_test_LD5();
  19:Src/logic_main.c ****     init_test_B1();
  20:Src/logic_main.c **** 
  21:Src/logic_main.c ****     while(1);
  22:Src/logic_main.c ****     return 0;
  23:Src/logic_main.c **** }
  24:Src/logic_main.c **** 
  25:Src/logic_main.c **** void init_test_B1(){
  28              		.loc 1 25 0
  29              		.cfi_startproc
  30              		@ args = 0, pretend = 0, frame = 8
  31              		@ frame_needed = 0, uses_anonymous_args = 0
  32 0000 00B5     		push	{lr}
  33              	.LCFI0:
ARM GAS  /tmp/cc7hfcjF.s 			page 2


  34              		.cfi_def_cfa_offset 4
  35              		.cfi_offset 14, -4
  36 0002 83B0     		sub	sp, sp, #12
  37              	.LCFI1:
  38              		.cfi_def_cfa_offset 16
  39              	.LBB2:
  26:Src/logic_main.c ****     __HAL_RCC_GPIOA_CLK_ENABLE();
  40              		.loc 1 26 0
  41 0004 0D4B     		ldr	r3, .L3
  42 0006 5A69     		ldr	r2, [r3, #20]
  43 0008 42F40032 		orr	r2, r2, #131072
  44 000c 5A61     		str	r2, [r3, #20]
  45 000e 5B69     		ldr	r3, [r3, #20]
  46 0010 03F40033 		and	r3, r3, #131072
  47 0014 0193     		str	r3, [sp, #4]
  48 0016 019B     		ldr	r3, [sp, #4]
  49              	.LBE2:
  27:Src/logic_main.c **** 
  28:Src/logic_main.c ****     /*Configure GPIO pin : PC13 - USER BUTTON */
  29:Src/logic_main.c ****     GPIO_InitStruct.Pin = GPIO_PIN_13;
  50              		.loc 1 29 0
  51 0018 0949     		ldr	r1, .L3+4
  52 001a 4FF40053 		mov	r3, #8192
  53 001e 0B60     		str	r3, [r1]
  30:Src/logic_main.c ****     GPIO_InitStruct.Mode = GPIO_MODE_IT_RISING;
  54              		.loc 1 30 0
  55 0020 084B     		ldr	r3, .L3+8
  56 0022 4B60     		str	r3, [r1, #4]
  31:Src/logic_main.c ****     GPIO_InitStruct.Pull = GPIO_PULLDOWN;
  57              		.loc 1 31 0
  58 0024 0223     		movs	r3, #2
  59 0026 8B60     		str	r3, [r1, #8]
  32:Src/logic_main.c ****     HAL_GPIO_Init(GPIOC, &GPIO_InitStruct);
  60              		.loc 1 32 0
  61 0028 0748     		ldr	r0, .L3+12
  62 002a FFF7FEFF 		bl	HAL_GPIO_Init
  63              	.LVL0:
  33:Src/logic_main.c **** 
  34:Src/logic_main.c ****     HAL_NVIC_EnableIRQ(EXTI15_10_IRQn);
  64              		.loc 1 34 0
  65 002e 2820     		movs	r0, #40
  66 0030 FFF7FEFF 		bl	HAL_NVIC_EnableIRQ
  67              	.LVL1:
  35:Src/logic_main.c **** }
  68              		.loc 1 35 0
  69 0034 03B0     		add	sp, sp, #12
  70              	.LCFI2:
  71              		.cfi_def_cfa_offset 4
  72              		@ sp needed
  73 0036 5DF804FB 		ldr	pc, [sp], #4
  74              	.L4:
  75 003a 00BF     		.align	2
  76              	.L3:
  77 003c 00100240 		.word	1073876992
  78 0040 00000000 		.word	GPIO_InitStruct
  79 0044 00001110 		.word	269549568
  80 0048 00080048 		.word	1207961600
ARM GAS  /tmp/cc7hfcjF.s 			page 3


  81              		.cfi_endproc
  82              	.LFE127:
  84              		.section	.text.init_test_LD5,"ax",%progbits
  85              		.align	1
  86              		.global	init_test_LD5
  87              		.syntax unified
  88              		.thumb
  89              		.thumb_func
  90              		.fpu fpv4-sp-d16
  92              	init_test_LD5:
  93              	.LFB128:
  36:Src/logic_main.c **** 
  37:Src/logic_main.c **** void init_test_LD5(){
  94              		.loc 1 37 0
  95              		.cfi_startproc
  96              		@ args = 0, pretend = 0, frame = 8
  97              		@ frame_needed = 0, uses_anonymous_args = 0
  98 0000 00B5     		push	{lr}
  99              	.LCFI3:
 100              		.cfi_def_cfa_offset 4
 101              		.cfi_offset 14, -4
 102 0002 83B0     		sub	sp, sp, #12
 103              	.LCFI4:
 104              		.cfi_def_cfa_offset 16
 105              	.LBB3:
  38:Src/logic_main.c ****     __HAL_RCC_GPIOA_CLK_ENABLE();
 106              		.loc 1 38 0
 107 0004 0C4B     		ldr	r3, .L7
 108 0006 5A69     		ldr	r2, [r3, #20]
 109 0008 42F40032 		orr	r2, r2, #131072
 110 000c 5A61     		str	r2, [r3, #20]
 111 000e 5B69     		ldr	r3, [r3, #20]
 112 0010 03F40033 		and	r3, r3, #131072
 113 0014 0193     		str	r3, [sp, #4]
 114 0016 019B     		ldr	r3, [sp, #4]
 115              	.LBE3:
  39:Src/logic_main.c **** 
  40:Src/logic_main.c ****     /*Configure GPIO pin : PA5 - LD2 LED */
  41:Src/logic_main.c ****     GPIO_InitStruct.Pin = GPIO_PIN_5;
 116              		.loc 1 41 0
 117 0018 0849     		ldr	r1, .L7+4
 118 001a 2023     		movs	r3, #32
 119 001c 0B60     		str	r3, [r1]
  42:Src/logic_main.c ****     GPIO_InitStruct.Mode = GPIO_MODE_OUTPUT_PP;
 120              		.loc 1 42 0
 121 001e 0123     		movs	r3, #1
 122 0020 4B60     		str	r3, [r1, #4]
  43:Src/logic_main.c ****     GPIO_InitStruct.Pull = GPIO_NOPULL;
 123              		.loc 1 43 0
 124 0022 0023     		movs	r3, #0
 125 0024 8B60     		str	r3, [r1, #8]
  44:Src/logic_main.c ****     GPIO_InitStruct.Speed = GPIO_SPEED_FREQ_LOW;
 126              		.loc 1 44 0
 127 0026 CB60     		str	r3, [r1, #12]
  45:Src/logic_main.c ****     HAL_GPIO_Init(GPIOA, &GPIO_InitStruct);
 128              		.loc 1 45 0
 129 0028 4FF09040 		mov	r0, #1207959552
ARM GAS  /tmp/cc7hfcjF.s 			page 4


 130 002c FFF7FEFF 		bl	HAL_GPIO_Init
 131              	.LVL2:
  46:Src/logic_main.c **** }
 132              		.loc 1 46 0
 133 0030 03B0     		add	sp, sp, #12
 134              	.LCFI5:
 135              		.cfi_def_cfa_offset 4
 136              		@ sp needed
 137 0032 5DF804FB 		ldr	pc, [sp], #4
 138              	.L8:
 139 0036 00BF     		.align	2
 140              	.L7:
 141 0038 00100240 		.word	1073876992
 142 003c 00000000 		.word	GPIO_InitStruct
 143              		.cfi_endproc
 144              	.LFE128:
 146              		.section	.text.main,"ax",%progbits
 147              		.align	1
 148              		.global	main
 149              		.syntax unified
 150              		.thumb
 151              		.thumb_func
 152              		.fpu fpv4-sp-d16
 154              	main:
 155              	.LFB126:
  13:Src/logic_main.c ****     HAL_Init();
 156              		.loc 1 13 0
 157              		.cfi_startproc
 158              		@ Volatile: function does not return.
 159              		@ args = 0, pretend = 0, frame = 0
 160              		@ frame_needed = 0, uses_anonymous_args = 0
 161 0000 08B5     		push	{r3, lr}
 162              	.LCFI6:
 163              		.cfi_def_cfa_offset 8
 164              		.cfi_offset 3, -8
 165              		.cfi_offset 14, -4
  14:Src/logic_main.c **** 
 166              		.loc 1 14 0
 167 0002 FFF7FEFF 		bl	HAL_Init
 168              	.LVL3:
  16:Src/logic_main.c **** 
 169              		.loc 1 16 0
 170 0006 FFF7FEFF 		bl	SystemClock_Config
 171              	.LVL4:
  18:Src/logic_main.c ****     init_test_B1();
 172              		.loc 1 18 0
 173 000a FFF7FEFF 		bl	init_test_LD5
 174              	.LVL5:
  19:Src/logic_main.c **** 
 175              		.loc 1 19 0
 176 000e FFF7FEFF 		bl	init_test_B1
 177              	.LVL6:
 178              	.L10:
 179 0012 FEE7     		b	.L10
 180              		.cfi_endproc
 181              	.LFE126:
 183              		.section	.text.EXTI15_10_IRQHandler,"ax",%progbits
ARM GAS  /tmp/cc7hfcjF.s 			page 5


 184              		.align	1
 185              		.global	EXTI15_10_IRQHandler
 186              		.syntax unified
 187              		.thumb
 188              		.thumb_func
 189              		.fpu fpv4-sp-d16
 191              	EXTI15_10_IRQHandler:
 192              	.LFB129:
  47:Src/logic_main.c **** 
  48:Src/logic_main.c **** // for B1 EXTI callback
  49:Src/logic_main.c **** void EXTI15_10_IRQHandler(void) {
 193              		.loc 1 49 0
 194              		.cfi_startproc
 195              		@ args = 0, pretend = 0, frame = 0
 196              		@ frame_needed = 0, uses_anonymous_args = 0
 197 0000 08B5     		push	{r3, lr}
 198              	.LCFI7:
 199              		.cfi_def_cfa_offset 8
 200              		.cfi_offset 3, -8
 201              		.cfi_offset 14, -4
  50:Src/logic_main.c ****     __HAL_GPIO_EXTI_CLEAR_IT(GPIO_PIN_13);
 202              		.loc 1 50 0
 203 0002 054B     		ldr	r3, .L14
 204 0004 4FF40052 		mov	r2, #8192
 205 0008 5A61     		str	r2, [r3, #20]
  51:Src/logic_main.c ****     HAL_GPIO_TogglePin(GPIOA, GPIO_PIN_5);
 206              		.loc 1 51 0
 207 000a 2021     		movs	r1, #32
 208 000c 4FF09040 		mov	r0, #1207959552
 209 0010 FFF7FEFF 		bl	HAL_GPIO_TogglePin
 210              	.LVL7:
  52:Src/logic_main.c **** }
 211              		.loc 1 52 0
 212 0014 08BD     		pop	{r3, pc}
 213              	.L15:
 214 0016 00BF     		.align	2
 215              	.L14:
 216 0018 00040140 		.word	1073808384
 217              		.cfi_endproc
 218              	.LFE129:
 220              		.comm	GPIO_InitStruct,20,4
 221              		.text
 222              	.Letext0:
 223              		.file 2 "/home/logic/STM32Toolchain/gcc-arm/arm-none-eabi/include/machine/_default_types.h"
 224              		.file 3 "/home/logic/STM32Toolchain/gcc-arm/arm-none-eabi/include/sys/_stdint.h"
 225              		.file 4 "Drivers/CMSIS/Include/core_cm4.h"
 226              		.file 5 "Drivers/CMSIS/Device/ST/STM32F3xx/Include/system_stm32f3xx.h"
 227              		.file 6 "Drivers/CMSIS/Device/ST/STM32F3xx/Include/stm32f303xe.h"
 228              		.file 7 "/home/logic/STM32Toolchain/gcc-arm/arm-none-eabi/include/sys/lock.h"
 229              		.file 8 "/home/logic/STM32Toolchain/gcc-arm/arm-none-eabi/include/sys/_types.h"
 230              		.file 9 "/home/logic/STM32Toolchain/gcc-arm/lib/gcc/arm-none-eabi/7.3.1/include/stddef.h"
 231              		.file 10 "/home/logic/STM32Toolchain/gcc-arm/arm-none-eabi/include/sys/reent.h"
 232              		.file 11 "Drivers/STM32F3xx_HAL_Driver/Inc/stm32f3xx_hal_def.h"
 233              		.file 12 "Drivers/STM32F3xx_HAL_Driver/Inc/stm32f3xx_hal_gpio.h"
 234              		.file 13 "Drivers/STM32F3xx_HAL_Driver/Inc/stm32f3xx_hal_dma.h"
 235              		.file 14 "Drivers/STM32F3xx_HAL_Driver/Inc/stm32f3xx_hal_uart.h"
 236              		.file 15 "Drivers/STM32F3xx_HAL_Driver/Inc/stm32f3xx_hal.h"
ARM GAS  /tmp/cc7hfcjF.s 			page 6


 237              		.file 16 "Inc/usart.h"
 238              		.file 17 "Drivers/STM32F3xx_HAL_Driver/Inc/stm32f3xx_hal_cortex.h"
ARM GAS  /tmp/cc7hfcjF.s 			page 7

