ARM GAS  /tmp/cc8GE8vu.s 			page 1


   1              		.cpu cortex-m4
   2              		.eabi_attribute 27, 1
   3              		.eabi_attribute 28, 1
   4              		.eabi_attribute 20, 1
   5              		.eabi_attribute 21, 1
   6              		.eabi_attribute 23, 3
   7              		.eabi_attribute 24, 1
   8              		.eabi_attribute 25, 1
   9              		.eabi_attribute 26, 1
  10              		.eabi_attribute 30, 1
  11              		.eabi_attribute 34, 1
  12              		.eabi_attribute 18, 4
  13              		.file	"logic_main.c"
  14              		.text
  15              	.Ltext0:
  16              		.cfi_sections	.debug_frame
  17              		.section	.text.init_timer_TIM6,"ax",%progbits
  18              		.align	1
  19              		.global	init_timer_TIM6
  20              		.syntax unified
  21              		.thumb
  22              		.thumb_func
  23              		.fpu fpv4-sp-d16
  25              	init_timer_TIM6:
  26              	.LFB127:
  27              		.file 1 "Core/Src/logic_main.c"
   1:Core/Src/logic_main.c **** 
   2:Core/Src/logic_main.c **** #include "main.h"
   3:Core/Src/logic_main.c **** #include "stm32f3xx_hal.h"
   4:Core/Src/logic_main.c **** #include "usart.h"
   5:Core/Src/logic_main.c **** #include "gpio.h"
   6:Core/Src/logic_main.c **** #include "stm32f3xx_hal_tim.h"
   7:Core/Src/logic_main.c **** 
   8:Core/Src/logic_main.c **** void init_timer_TIM6(void);
   9:Core/Src/logic_main.c **** 
  10:Core/Src/logic_main.c **** 
  11:Core/Src/logic_main.c **** TIM_HandleTypeDef htim6;
  12:Core/Src/logic_main.c **** 
  13:Core/Src/logic_main.c **** int main(void){
  14:Core/Src/logic_main.c ****     MX_GPIO_Init();
  15:Core/Src/logic_main.c **** 
  16:Core/Src/logic_main.c ****     init_timer_TIM6();
  17:Core/Src/logic_main.c ****     HAL_TIM_Base_Start_IT(&htim6);
  18:Core/Src/logic_main.c **** 
  19:Core/Src/logic_main.c ****     while (1);
  20:Core/Src/logic_main.c **** }
  21:Core/Src/logic_main.c **** 
  22:Core/Src/logic_main.c **** void init_timer_TIM6(){
  28              		.loc 1 22 0
  29              		.cfi_startproc
  30              		@ args = 0, pretend = 0, frame = 8
  31              		@ frame_needed = 0, uses_anonymous_args = 0
  32 0000 10B5     		push	{r4, lr}
  33              	.LCFI0:
  34              		.cfi_def_cfa_offset 8
  35              		.cfi_offset 4, -8
  36              		.cfi_offset 14, -4
ARM GAS  /tmp/cc8GE8vu.s 			page 2


  37 0002 82B0     		sub	sp, sp, #8
  38              	.LCFI1:
  39              		.cfi_def_cfa_offset 16
  23:Core/Src/logic_main.c ****   htim6.Instance = TIM6;
  40              		.loc 1 23 0
  41 0004 0F4C     		ldr	r4, .L3
  42 0006 104B     		ldr	r3, .L3+4
  43 0008 2360     		str	r3, [r4]
  24:Core/Src/logic_main.c ****   htim6.Init.Prescaler = 36000-1; //72MHz/36000 = 2000Hz
  44              		.loc 1 24 0
  45 000a 48F69F43 		movw	r3, #35999
  46 000e 6360     		str	r3, [r4, #4]
  25:Core/Src/logic_main.c ****   htim6.Init.Period = 100-1;      //2000HZ / 1000 = 2Hz = 0.5s
  47              		.loc 1 25 0
  48 0010 6323     		movs	r3, #99
  49 0012 E360     		str	r3, [r4, #12]
  50              	.LBB2:
  26:Core/Src/logic_main.c **** 
  27:Core/Src/logic_main.c ****   __HAL_RCC_TIM6_CLK_ENABLE();
  51              		.loc 1 27 0
  52 0014 0D4B     		ldr	r3, .L3+8
  53 0016 DA69     		ldr	r2, [r3, #28]
  54 0018 42F01002 		orr	r2, r2, #16
  55 001c DA61     		str	r2, [r3, #28]
  56 001e DB69     		ldr	r3, [r3, #28]
  57 0020 03F01003 		and	r3, r3, #16
  58 0024 0193     		str	r3, [sp, #4]
  59 0026 019B     		ldr	r3, [sp, #4]
  60              	.LBE2:
  28:Core/Src/logic_main.c **** 
  29:Core/Src/logic_main.c ****   HAL_NVIC_SetPriority(TIM6_DAC1_IRQn, 0, 0);
  61              		.loc 1 29 0
  62 0028 0022     		movs	r2, #0
  63 002a 1146     		mov	r1, r2
  64 002c 3620     		movs	r0, #54
  65 002e FFF7FEFF 		bl	HAL_NVIC_SetPriority
  66              	.LVL0:
  30:Core/Src/logic_main.c ****   HAL_NVIC_EnableIRQ(TIM6_DAC1_IRQn);
  67              		.loc 1 30 0
  68 0032 3620     		movs	r0, #54
  69 0034 FFF7FEFF 		bl	HAL_NVIC_EnableIRQ
  70              	.LVL1:
  31:Core/Src/logic_main.c **** 
  32:Core/Src/logic_main.c ****   HAL_TIM_Base_Init(&htim6);
  71              		.loc 1 32 0
  72 0038 2046     		mov	r0, r4
  73 003a FFF7FEFF 		bl	HAL_TIM_Base_Init
  74              	.LVL2:
  33:Core/Src/logic_main.c **** }
  75              		.loc 1 33 0
  76 003e 02B0     		add	sp, sp, #8
  77              	.LCFI2:
  78              		.cfi_def_cfa_offset 8
  79              		@ sp needed
  80 0040 10BD     		pop	{r4, pc}
  81              	.L4:
  82 0042 00BF     		.align	2
ARM GAS  /tmp/cc8GE8vu.s 			page 3


  83              	.L3:
  84 0044 00000000 		.word	htim6
  85 0048 00100040 		.word	1073745920
  86 004c 00100240 		.word	1073876992
  87              		.cfi_endproc
  88              	.LFE127:
  90              		.section	.text.main,"ax",%progbits
  91              		.align	1
  92              		.global	main
  93              		.syntax unified
  94              		.thumb
  95              		.thumb_func
  96              		.fpu fpv4-sp-d16
  98              	main:
  99              	.LFB126:
  13:Core/Src/logic_main.c ****     MX_GPIO_Init();
 100              		.loc 1 13 0
 101              		.cfi_startproc
 102              		@ Volatile: function does not return.
 103              		@ args = 0, pretend = 0, frame = 0
 104              		@ frame_needed = 0, uses_anonymous_args = 0
 105 0000 08B5     		push	{r3, lr}
 106              	.LCFI3:
 107              		.cfi_def_cfa_offset 8
 108              		.cfi_offset 3, -8
 109              		.cfi_offset 14, -4
  14:Core/Src/logic_main.c **** 
 110              		.loc 1 14 0
 111 0002 FFF7FEFF 		bl	MX_GPIO_Init
 112              	.LVL3:
  16:Core/Src/logic_main.c ****     HAL_TIM_Base_Start_IT(&htim6);
 113              		.loc 1 16 0
 114 0006 FFF7FEFF 		bl	init_timer_TIM6
 115              	.LVL4:
  17:Core/Src/logic_main.c **** 
 116              		.loc 1 17 0
 117 000a 0248     		ldr	r0, .L8
 118 000c FFF7FEFF 		bl	HAL_TIM_Base_Start_IT
 119              	.LVL5:
 120              	.L6:
 121 0010 FEE7     		b	.L6
 122              	.L9:
 123 0012 00BF     		.align	2
 124              	.L8:
 125 0014 00000000 		.word	htim6
 126              		.cfi_endproc
 127              	.LFE126:
 129              		.section	.text.TIM6_DAC_IRQHandler,"ax",%progbits
 130              		.align	1
 131              		.global	TIM6_DAC_IRQHandler
 132              		.syntax unified
 133              		.thumb
 134              		.thumb_func
 135              		.fpu fpv4-sp-d16
 137              	TIM6_DAC_IRQHandler:
 138              	.LFB128:
  34:Core/Src/logic_main.c **** 
ARM GAS  /tmp/cc8GE8vu.s 			page 4


  35:Core/Src/logic_main.c **** void TIM6_DAC1_IRQHandler(void) {
 139              		.loc 1 35 0
 140              		.cfi_startproc
 141              		@ args = 0, pretend = 0, frame = 0
 142              		@ frame_needed = 0, uses_anonymous_args = 0
 143 0000 08B5     		push	{r3, lr}
 144              	.LCFI4:
 145              		.cfi_def_cfa_offset 8
 146              		.cfi_offset 3, -8
 147              		.cfi_offset 14, -4
  36:Core/Src/logic_main.c ****   HAL_TIM_IRQHandler(&htim6);
 148              		.loc 1 36 0
 149 0002 0248     		ldr	r0, .L12
 150 0004 FFF7FEFF 		bl	HAL_TIM_IRQHandler
 151              	.LVL6:
  37:Core/Src/logic_main.c **** }
 152              		.loc 1 37 0
 153 0008 08BD     		pop	{r3, pc}
 154              	.L13:
 155 000a 00BF     		.align	2
 156              	.L12:
 157 000c 00000000 		.word	htim6
 158              		.cfi_endproc
 159              	.LFE128:
 161              		.section	.text.HAL_TIM_PeriodElapsedCallback,"ax",%progbits
 162              		.align	1
 163              		.global	HAL_TIM_PeriodElapsedCallback
 164              		.syntax unified
 165              		.thumb
 166              		.thumb_func
 167              		.fpu fpv4-sp-d16
 169              	HAL_TIM_PeriodElapsedCallback:
 170              	.LFB129:
  38:Core/Src/logic_main.c **** 
  39:Core/Src/logic_main.c **** void HAL_TIM_PeriodElapsedCallback(TIM_HandleTypeDef *htim) {
 171              		.loc 1 39 0
 172              		.cfi_startproc
 173              		@ args = 0, pretend = 0, frame = 0
 174              		@ frame_needed = 0, uses_anonymous_args = 0
 175              	.LVL7:
 176 0000 08B5     		push	{r3, lr}
 177              	.LCFI5:
 178              		.cfi_def_cfa_offset 8
 179              		.cfi_offset 3, -8
 180              		.cfi_offset 14, -4
  40:Core/Src/logic_main.c ****   if(htim->Instance == TIM6)
 181              		.loc 1 40 0
 182 0002 0268     		ldr	r2, [r0]
 183 0004 044B     		ldr	r3, .L18
 184 0006 9A42     		cmp	r2, r3
 185 0008 00D0     		beq	.L17
 186              	.LVL8:
 187              	.L14:
  41:Core/Src/logic_main.c ****     HAL_GPIO_TogglePin(LD2_GPIO_Port, LD2_Pin);
  42:Core/Src/logic_main.c **** }
 188              		.loc 1 42 0
 189 000a 08BD     		pop	{r3, pc}
ARM GAS  /tmp/cc8GE8vu.s 			page 5


 190              	.LVL9:
 191              	.L17:
  41:Core/Src/logic_main.c ****     HAL_GPIO_TogglePin(LD2_GPIO_Port, LD2_Pin);
 192              		.loc 1 41 0
 193 000c 2021     		movs	r1, #32
 194 000e 4FF09040 		mov	r0, #1207959552
 195              	.LVL10:
 196 0012 FFF7FEFF 		bl	HAL_GPIO_TogglePin
 197              	.LVL11:
 198              		.loc 1 42 0
 199 0016 F8E7     		b	.L14
 200              	.L19:
 201              		.align	2
 202              	.L18:
 203 0018 00100040 		.word	1073745920
 204              		.cfi_endproc
 205              	.LFE129:
 207              		.comm	htim6,64,4
 208              		.text
 209              	.Letext0:
 210              		.file 2 "/home/logic/STM32Toolchain/gcc-arm/arm-none-eabi/include/machine/_default_types.h"
 211              		.file 3 "/home/logic/STM32Toolchain/gcc-arm/arm-none-eabi/include/sys/_stdint.h"
 212              		.file 4 "Drivers/CMSIS/Include/core_cm4.h"
 213              		.file 5 "Drivers/CMSIS/Device/ST/STM32F3xx/Include/system_stm32f3xx.h"
 214              		.file 6 "Drivers/CMSIS/Device/ST/STM32F3xx/Include/stm32f303xe.h"
 215              		.file 7 "/home/logic/STM32Toolchain/gcc-arm/arm-none-eabi/include/sys/lock.h"
 216              		.file 8 "/home/logic/STM32Toolchain/gcc-arm/arm-none-eabi/include/sys/_types.h"
 217              		.file 9 "/home/logic/STM32Toolchain/gcc-arm/lib/gcc/arm-none-eabi/7.3.1/include/stddef.h"
 218              		.file 10 "/home/logic/STM32Toolchain/gcc-arm/arm-none-eabi/include/sys/reent.h"
 219              		.file 11 "Drivers/STM32F3xx_HAL_Driver/Inc/stm32f3xx_hal_def.h"
 220              		.file 12 "Drivers/STM32F3xx_HAL_Driver/Inc/stm32f3xx_hal_dma.h"
 221              		.file 13 "Drivers/STM32F3xx_HAL_Driver/Inc/stm32f3xx_hal_tim.h"
 222              		.file 14 "Drivers/STM32F3xx_HAL_Driver/Inc/stm32f3xx_hal_uart.h"
 223              		.file 15 "Drivers/STM32F3xx_HAL_Driver/Inc/stm32f3xx_hal.h"
 224              		.file 16 "Core/Inc/usart.h"
 225              		.file 17 "Drivers/STM32F3xx_HAL_Driver/Inc/stm32f3xx_hal_gpio.h"
 226              		.file 18 "Drivers/STM32F3xx_HAL_Driver/Inc/stm32f3xx_hal_cortex.h"
 227              		.file 19 "Core/Inc/gpio.h"
ARM GAS  /tmp/cc8GE8vu.s 			page 6

