ARM GAS  /tmp/cczHIwqL.s 			page 1


   1              		.cpu cortex-m3
   2              		.eabi_attribute 20, 1
   3              		.eabi_attribute 21, 1
   4              		.eabi_attribute 23, 3
   5              		.eabi_attribute 24, 1
   6              		.eabi_attribute 25, 1
   7              		.eabi_attribute 26, 1
   8              		.eabi_attribute 30, 1
   9              		.eabi_attribute 34, 1
  10              		.eabi_attribute 18, 4
  11              		.file	"main.c"
  12              		.text
  13              	.Ltext0:
  14              		.cfi_sections	.debug_frame
  15              		.section	.text.HAL_UART_RxCpltCallback,"ax",%progbits
  16              		.align	1
  17              		.global	HAL_UART_RxCpltCallback
  18              		.syntax unified
  19              		.thumb
  20              		.thumb_func
  21              		.fpu softvfp
  23              	HAL_UART_RxCpltCallback:
  24              	.LFB67:
  25              		.file 1 "Src/main.c"
   1:Src/main.c    **** 
   2:Src/main.c    **** /**
   3:Src/main.c    ****   ******************************************************************************
   4:Src/main.c    ****   * @file           : main.c
   5:Src/main.c    ****   * @brief          : Main program body
   6:Src/main.c    ****   ******************************************************************************
   7:Src/main.c    ****   ** This notice applies to any and all portions of this file
   8:Src/main.c    ****   * that are not between comment pairs USER CODE BEGIN and
   9:Src/main.c    ****   * USER CODE END. Other portions of this file, whether
  10:Src/main.c    ****   * inserted by the user or by software development tools
  11:Src/main.c    ****   * are owned by their respective copyright owners.
  12:Src/main.c    ****   *
  13:Src/main.c    ****   * COPYRIGHT(c) 2018 STMicroelectronics
  14:Src/main.c    ****   *
  15:Src/main.c    ****   * Redistribution and use in source and binary forms, with or without modification,
  16:Src/main.c    ****   * are permitted provided that the following conditions are met:
  17:Src/main.c    ****   *   1. Redistributions of source code must retain the above copyright notice,
  18:Src/main.c    ****   *      this list of conditions and the following disclaimer.
  19:Src/main.c    ****   *   2. Redistributions in binary form must reproduce the above copyright notice,
  20:Src/main.c    ****   *      this list of conditions and the following disclaimer in the documentation
  21:Src/main.c    ****   *      and/or other materials provided with the distribution.
  22:Src/main.c    ****   *   3. Neither the name of STMicroelectronics nor the names of its contributors
  23:Src/main.c    ****   *      may be used to endorse or promote products derived from this software
  24:Src/main.c    ****   *      without specific prior written permission.
  25:Src/main.c    ****   *
  26:Src/main.c    ****   * THIS SOFTWARE IS PROVIDED BY THE COPYRIGHT HOLDERS AND CONTRIBUTORS "AS IS"
  27:Src/main.c    ****   * AND ANY EXPRESS OR IMPLIED WARRANTIES, INCLUDING, BUT NOT LIMITED TO, THE
  28:Src/main.c    ****   * IMPLIED WARRANTIES OF MERCHANTABILITY AND FITNESS FOR A PARTICULAR PURPOSE ARE
  29:Src/main.c    ****   * DISCLAIMED. IN NO EVENT SHALL THE COPYRIGHT HOLDER OR CONTRIBUTORS BE LIABLE
  30:Src/main.c    ****   * FOR ANY DIRECT, INDIRECT, INCIDENTAL, SPECIAL, EXEMPLARY, OR CONSEQUENTIAL
  31:Src/main.c    ****   * DAMAGES (INCLUDING, BUT NOT LIMITED TO, PROCUREMENT OF SUBSTITUTE GOODS OR
  32:Src/main.c    ****   * SERVICES; LOSS OF USE, DATA, OR PROFITS; OR BUSINESS INTERRUPTION) HOWEVER
  33:Src/main.c    ****   * CAUSED AND ON ANY THEORY OF LIABILITY, WHETHER IN CONTRACT, STRICT LIABILITY,
ARM GAS  /tmp/cczHIwqL.s 			page 2


  34:Src/main.c    ****   * OR TORT (INCLUDING NEGLIGENCE OR OTHERWISE) ARISING IN ANY WAY OUT OF THE USE
  35:Src/main.c    ****   * OF THIS SOFTWARE, EVEN IF ADVISED OF THE POSSIBILITY OF SUCH DAMAGE.
  36:Src/main.c    ****   *
  37:Src/main.c    ****   ******************************************************************************
  38:Src/main.c    ****   */
  39:Src/main.c    **** /* Includes ------------------------------------------------------------------*/
  40:Src/main.c    **** #include "main.h"
  41:Src/main.c    **** #include "stm32f1xx_hal.h"
  42:Src/main.c    **** #include "usart.h"
  43:Src/main.c    **** #include "gpio.h"
  44:Src/main.c    **** 
  45:Src/main.c    **** /* USER CODE BEGIN Includes */
  46:Src/main.c    **** 
  47:Src/main.c    **** /* USER CODE END Includes */
  48:Src/main.c    **** 
  49:Src/main.c    **** /* Private variables ---------------------------------------------------------*/
  50:Src/main.c    **** 
  51:Src/main.c    **** /* USER CODE BEGIN PV */
  52:Src/main.c    **** /* Private variables ---------------------------------------------------------*/
  53:Src/main.c    **** 
  54:Src/main.c    **** /* USER CODE END PV */
  55:Src/main.c    **** 
  56:Src/main.c    **** /* Private function prototypes -----------------------------------------------*/
  57:Src/main.c    **** void SystemClock_Config(void);
  58:Src/main.c    **** 
  59:Src/main.c    **** /* USER CODE BEGIN PFP */
  60:Src/main.c    **** /* Private function prototypes -----------------------------------------------*/
  61:Src/main.c    **** 
  62:Src/main.c    **** /* USER CODE END PFP */
  63:Src/main.c    **** 
  64:Src/main.c    **** /* USER CODE BEGIN 0 */
  65:Src/main.c    **** 
  66:Src/main.c    **** /* USER CODE END 0 */
  67:Src/main.c    **** 
  68:Src/main.c    **** /**
  69:Src/main.c    ****   * @brief  The application entry point.
  70:Src/main.c    ****   *
  71:Src/main.c    ****   * @retval None
  72:Src/main.c    ****   */
  73:Src/main.c    **** int main(void)
  74:Src/main.c    **** {
  75:Src/main.c    ****   /* USER CODE BEGIN 1 */
  76:Src/main.c    **** 
  77:Src/main.c    ****   /* USER CODE END 1 */
  78:Src/main.c    **** 
  79:Src/main.c    ****   /* MCU Configuration----------------------------------------------------------*/
  80:Src/main.c    **** 
  81:Src/main.c    ****   /* Reset of all peripherals, Initializes the Flash interface and the Systick. */
  82:Src/main.c    ****   HAL_Init();
  83:Src/main.c    **** 
  84:Src/main.c    ****   /* USER CODE BEGIN Init */
  85:Src/main.c    **** 
  86:Src/main.c    ****   /* USER CODE END Init */
  87:Src/main.c    **** 
  88:Src/main.c    ****   /* Configure the system clock */
  89:Src/main.c    ****   SystemClock_Config();
  90:Src/main.c    **** 
ARM GAS  /tmp/cczHIwqL.s 			page 3


  91:Src/main.c    ****   /* USER CODE BEGIN SysInit */
  92:Src/main.c    **** 
  93:Src/main.c    ****   /* USER CODE END SysInit */
  94:Src/main.c    **** 
  95:Src/main.c    ****   /* Initialize all configured peripherals */
  96:Src/main.c    ****   MX_GPIO_Init();
  97:Src/main.c    ****   MX_USART2_UART_Init();
  98:Src/main.c    ****   /* USER CODE BEGIN 2 */
  99:Src/main.c    **** 
 100:Src/main.c    ****   HAL_UART_MspInit(&huart2);
 101:Src/main.c    **** 
 102:Src/main.c    ****   /* USER CODE END 2 */
 103:Src/main.c    ****   char test_msg[1]="1dddd";
 104:Src/main.c    **** 
 105:Src/main.c    ****   /* Infinite loop */
 106:Src/main.c    ****   /* USER CODE BEGIN WHILE */
 107:Src/main.c    ****   while (1)
 108:Src/main.c    ****   {
 109:Src/main.c    ****   /* USER CODE END WHILE */
 110:Src/main.c    **** 
 111:Src/main.c    ****     HAL_UART_Transmit(&huart2, (uint8_t * )test_msg,1, HAL_MAX_DELAY);
 112:Src/main.c    ****   /* USER CODE BEGIN 3 */
 113:Src/main.c    ****     HAL_Delay(1000);
 114:Src/main.c    ****   }
 115:Src/main.c    ****   /* USER CODE END 3 */
 116:Src/main.c    **** 
 117:Src/main.c    **** }
 118:Src/main.c    **** 
 119:Src/main.c    **** void HAL_UART_RxCpltCallback(UART_HandleTypeDef *UartHandle) {
  26              		.loc 1 119 0
  27              		.cfi_startproc
  28              		@ args = 0, pretend = 0, frame = 0
  29              		@ frame_needed = 0, uses_anonymous_args = 0
  30              	.LVL0:
  31 0000 08B5     		push	{r3, lr}
  32              	.LCFI0:
  33              		.cfi_def_cfa_offset 8
  34              		.cfi_offset 3, -8
  35              		.cfi_offset 14, -4
 120:Src/main.c    ****     /* Set transmission flag: transfer complete*/
 121:Src/main.c    ****     HAL_GPIO_TogglePin(GPIOC, GPIO_PIN_13);
  36              		.loc 1 121 0
  37 0002 4FF40051 		mov	r1, #8192
  38 0006 0248     		ldr	r0, .L3
  39              	.LVL1:
  40 0008 FFF7FEFF 		bl	HAL_GPIO_TogglePin
  41              	.LVL2:
 122:Src/main.c    **** }
  42              		.loc 1 122 0
  43 000c 08BD     		pop	{r3, pc}
  44              	.L4:
  45 000e 00BF     		.align	2
  46              	.L3:
  47 0010 00100140 		.word	1073811456
  48              		.cfi_endproc
  49              	.LFE67:
  51              		.section	.text._Error_Handler,"ax",%progbits
ARM GAS  /tmp/cczHIwqL.s 			page 4


  52              		.align	1
  53              		.global	_Error_Handler
  54              		.syntax unified
  55              		.thumb
  56              		.thumb_func
  57              		.fpu softvfp
  59              	_Error_Handler:
  60              	.LFB69:
 123:Src/main.c    **** 
 124:Src/main.c    **** 
 125:Src/main.c    **** /**
 126:Src/main.c    ****   * @brief System Clock Configuration
 127:Src/main.c    ****   * @retval None
 128:Src/main.c    ****   */
 129:Src/main.c    **** void SystemClock_Config(void)
 130:Src/main.c    **** {
 131:Src/main.c    **** 
 132:Src/main.c    ****   RCC_OscInitTypeDef RCC_OscInitStruct;
 133:Src/main.c    ****   RCC_ClkInitTypeDef RCC_ClkInitStruct;
 134:Src/main.c    **** 
 135:Src/main.c    ****     /**Initializes the CPU, AHB and APB busses clocks
 136:Src/main.c    ****     */
 137:Src/main.c    ****   RCC_OscInitStruct.OscillatorType = RCC_OSCILLATORTYPE_HSI;
 138:Src/main.c    ****   RCC_OscInitStruct.HSIState = RCC_HSI_ON;
 139:Src/main.c    ****   RCC_OscInitStruct.HSICalibrationValue = 16;
 140:Src/main.c    ****   RCC_OscInitStruct.PLL.PLLState = RCC_PLL_NONE;
 141:Src/main.c    ****   if (HAL_RCC_OscConfig(&RCC_OscInitStruct) != HAL_OK)
 142:Src/main.c    ****   {
 143:Src/main.c    ****     _Error_Handler(__FILE__, __LINE__);
 144:Src/main.c    ****   }
 145:Src/main.c    **** 
 146:Src/main.c    ****     /**Initializes the CPU, AHB and APB busses clocks
 147:Src/main.c    ****     */
 148:Src/main.c    ****   RCC_ClkInitStruct.ClockType = RCC_CLOCKTYPE_HCLK|RCC_CLOCKTYPE_SYSCLK
 149:Src/main.c    ****                               |RCC_CLOCKTYPE_PCLK1|RCC_CLOCKTYPE_PCLK2;
 150:Src/main.c    ****   RCC_ClkInitStruct.SYSCLKSource = RCC_SYSCLKSOURCE_HSI;
 151:Src/main.c    ****   RCC_ClkInitStruct.AHBCLKDivider = RCC_SYSCLK_DIV1;
 152:Src/main.c    ****   RCC_ClkInitStruct.APB1CLKDivider = RCC_HCLK_DIV1;
 153:Src/main.c    ****   RCC_ClkInitStruct.APB2CLKDivider = RCC_HCLK_DIV1;
 154:Src/main.c    **** 
 155:Src/main.c    ****   if (HAL_RCC_ClockConfig(&RCC_ClkInitStruct, FLASH_LATENCY_0) != HAL_OK)
 156:Src/main.c    ****   {
 157:Src/main.c    ****     _Error_Handler(__FILE__, __LINE__);
 158:Src/main.c    ****   }
 159:Src/main.c    **** 
 160:Src/main.c    ****     /**Configure the Systick interrupt time
 161:Src/main.c    ****     */
 162:Src/main.c    ****   HAL_SYSTICK_Config(HAL_RCC_GetHCLKFreq()/1000);
 163:Src/main.c    **** 
 164:Src/main.c    ****     /**Configure the Systick
 165:Src/main.c    ****     */
 166:Src/main.c    ****   HAL_SYSTICK_CLKSourceConfig(SYSTICK_CLKSOURCE_HCLK);
 167:Src/main.c    **** 
 168:Src/main.c    ****   /* SysTick_IRQn interrupt configuration */
 169:Src/main.c    ****   HAL_NVIC_SetPriority(SysTick_IRQn, 0, 0);
 170:Src/main.c    **** }
 171:Src/main.c    **** 
ARM GAS  /tmp/cczHIwqL.s 			page 5


 172:Src/main.c    **** /* USER CODE BEGIN 4 */
 173:Src/main.c    **** 
 174:Src/main.c    **** /* USER CODE END 4 */
 175:Src/main.c    **** 
 176:Src/main.c    **** /**
 177:Src/main.c    ****   * @brief  This function is executed in case of error occurrence.
 178:Src/main.c    ****   * @param  file: The file name as string.
 179:Src/main.c    ****   * @param  line: The line in file as a number.
 180:Src/main.c    ****   * @retval None
 181:Src/main.c    ****   */
 182:Src/main.c    **** void _Error_Handler(char *file, int line)
 183:Src/main.c    **** {
  61              		.loc 1 183 0
  62              		.cfi_startproc
  63              		@ Volatile: function does not return.
  64              		@ args = 0, pretend = 0, frame = 0
  65              		@ frame_needed = 0, uses_anonymous_args = 0
  66              		@ link register save eliminated.
  67              	.LVL3:
  68              	.L6:
  69 0000 FEE7     		b	.L6
  70              		.cfi_endproc
  71              	.LFE69:
  73              		.section	.text.SystemClock_Config,"ax",%progbits
  74              		.align	1
  75              		.global	SystemClock_Config
  76              		.syntax unified
  77              		.thumb
  78              		.thumb_func
  79              		.fpu softvfp
  81              	SystemClock_Config:
  82              	.LFB68:
 130:Src/main.c    **** 
  83              		.loc 1 130 0
  84              		.cfi_startproc
  85              		@ args = 0, pretend = 0, frame = 64
  86              		@ frame_needed = 0, uses_anonymous_args = 0
 130:Src/main.c    **** 
  87              		.loc 1 130 0
  88 0000 00B5     		push	{lr}
  89              	.LCFI1:
  90              		.cfi_def_cfa_offset 4
  91              		.cfi_offset 14, -4
  92 0002 91B0     		sub	sp, sp, #68
  93              	.LCFI2:
  94              		.cfi_def_cfa_offset 72
 137:Src/main.c    ****   RCC_OscInitStruct.HSIState = RCC_HSI_ON;
  95              		.loc 1 137 0
  96 0004 0223     		movs	r3, #2
  97 0006 0693     		str	r3, [sp, #24]
 138:Src/main.c    ****   RCC_OscInitStruct.HSICalibrationValue = 16;
  98              		.loc 1 138 0
  99 0008 0123     		movs	r3, #1
 100 000a 0A93     		str	r3, [sp, #40]
 139:Src/main.c    ****   RCC_OscInitStruct.PLL.PLLState = RCC_PLL_NONE;
 101              		.loc 1 139 0
 102 000c 1023     		movs	r3, #16
ARM GAS  /tmp/cczHIwqL.s 			page 6


 103 000e 0B93     		str	r3, [sp, #44]
 140:Src/main.c    ****   if (HAL_RCC_OscConfig(&RCC_OscInitStruct) != HAL_OK)
 104              		.loc 1 140 0
 105 0010 0023     		movs	r3, #0
 106 0012 0D93     		str	r3, [sp, #52]
 141:Src/main.c    ****   {
 107              		.loc 1 141 0
 108 0014 06A8     		add	r0, sp, #24
 109 0016 FFF7FEFF 		bl	HAL_RCC_OscConfig
 110              	.LVL4:
 111 001a F0B9     		cbnz	r0, .L11
 148:Src/main.c    ****                               |RCC_CLOCKTYPE_PCLK1|RCC_CLOCKTYPE_PCLK2;
 112              		.loc 1 148 0
 113 001c 0F23     		movs	r3, #15
 114 001e 0193     		str	r3, [sp, #4]
 150:Src/main.c    ****   RCC_ClkInitStruct.AHBCLKDivider = RCC_SYSCLK_DIV1;
 115              		.loc 1 150 0
 116 0020 0021     		movs	r1, #0
 117 0022 0291     		str	r1, [sp, #8]
 151:Src/main.c    ****   RCC_ClkInitStruct.APB1CLKDivider = RCC_HCLK_DIV1;
 118              		.loc 1 151 0
 119 0024 0391     		str	r1, [sp, #12]
 152:Src/main.c    ****   RCC_ClkInitStruct.APB2CLKDivider = RCC_HCLK_DIV1;
 120              		.loc 1 152 0
 121 0026 0491     		str	r1, [sp, #16]
 153:Src/main.c    **** 
 122              		.loc 1 153 0
 123 0028 0591     		str	r1, [sp, #20]
 155:Src/main.c    ****   {
 124              		.loc 1 155 0
 125 002a 01A8     		add	r0, sp, #4
 126 002c FFF7FEFF 		bl	HAL_RCC_ClockConfig
 127              	.LVL5:
 128 0030 B8B9     		cbnz	r0, .L12
 162:Src/main.c    **** 
 129              		.loc 1 162 0
 130 0032 FFF7FEFF 		bl	HAL_RCC_GetHCLKFreq
 131              	.LVL6:
 132 0036 0D4B     		ldr	r3, .L13
 133 0038 A3FB0030 		umull	r3, r0, r3, r0
 134 003c 8009     		lsrs	r0, r0, #6
 135 003e FFF7FEFF 		bl	HAL_SYSTICK_Config
 136              	.LVL7:
 166:Src/main.c    **** 
 137              		.loc 1 166 0
 138 0042 0420     		movs	r0, #4
 139 0044 FFF7FEFF 		bl	HAL_SYSTICK_CLKSourceConfig
 140              	.LVL8:
 169:Src/main.c    **** }
 141              		.loc 1 169 0
 142 0048 0022     		movs	r2, #0
 143 004a 1146     		mov	r1, r2
 144 004c 4FF0FF30 		mov	r0, #-1
 145 0050 FFF7FEFF 		bl	HAL_NVIC_SetPriority
 146              	.LVL9:
 170:Src/main.c    **** 
 147              		.loc 1 170 0
ARM GAS  /tmp/cczHIwqL.s 			page 7


 148 0054 11B0     		add	sp, sp, #68
 149              	.LCFI3:
 150              		.cfi_remember_state
 151              		.cfi_def_cfa_offset 4
 152              		@ sp needed
 153 0056 5DF804FB 		ldr	pc, [sp], #4
 154              	.L11:
 155              	.LCFI4:
 156              		.cfi_restore_state
 143:Src/main.c    ****   }
 157              		.loc 1 143 0
 158 005a 8F21     		movs	r1, #143
 159 005c 0448     		ldr	r0, .L13+4
 160 005e FFF7FEFF 		bl	_Error_Handler
 161              	.LVL10:
 162              	.L12:
 157:Src/main.c    ****   }
 163              		.loc 1 157 0
 164 0062 9D21     		movs	r1, #157
 165 0064 0248     		ldr	r0, .L13+4
 166 0066 FFF7FEFF 		bl	_Error_Handler
 167              	.LVL11:
 168              	.L14:
 169 006a 00BF     		.align	2
 170              	.L13:
 171 006c D34D6210 		.word	274877907
 172 0070 00000000 		.word	.LC0
 173              		.cfi_endproc
 174              	.LFE68:
 176              		.section	.text.main,"ax",%progbits
 177              		.align	1
 178              		.global	main
 179              		.syntax unified
 180              		.thumb
 181              		.thumb_func
 182              		.fpu softvfp
 184              	main:
 185              	.LFB66:
  74:Src/main.c    ****   /* USER CODE BEGIN 1 */
 186              		.loc 1 74 0
 187              		.cfi_startproc
 188              		@ Volatile: function does not return.
 189              		@ args = 0, pretend = 0, frame = 8
 190              		@ frame_needed = 0, uses_anonymous_args = 0
 191 0000 00B5     		push	{lr}
 192              	.LCFI5:
 193              		.cfi_def_cfa_offset 4
 194              		.cfi_offset 14, -4
 195 0002 83B0     		sub	sp, sp, #12
 196              	.LCFI6:
 197              		.cfi_def_cfa_offset 16
  82:Src/main.c    **** 
 198              		.loc 1 82 0
 199 0004 FFF7FEFF 		bl	HAL_Init
 200              	.LVL12:
  89:Src/main.c    **** 
 201              		.loc 1 89 0
ARM GAS  /tmp/cczHIwqL.s 			page 8


 202 0008 FFF7FEFF 		bl	SystemClock_Config
 203              	.LVL13:
  96:Src/main.c    ****   MX_USART2_UART_Init();
 204              		.loc 1 96 0
 205 000c FFF7FEFF 		bl	MX_GPIO_Init
 206              	.LVL14:
  97:Src/main.c    ****   /* USER CODE BEGIN 2 */
 207              		.loc 1 97 0
 208 0010 FFF7FEFF 		bl	MX_USART2_UART_Init
 209              	.LVL15:
 100:Src/main.c    **** 
 210              		.loc 1 100 0
 211 0014 0848     		ldr	r0, .L18
 212 0016 FFF7FEFF 		bl	HAL_UART_MspInit
 213              	.LVL16:
 103:Src/main.c    **** 
 214              		.loc 1 103 0
 215 001a 3123     		movs	r3, #49
 216 001c 8DF80430 		strb	r3, [sp, #4]
 217              	.L16:
 111:Src/main.c    ****   /* USER CODE BEGIN 3 */
 218              		.loc 1 111 0 discriminator 1
 219 0020 4FF0FF33 		mov	r3, #-1
 220 0024 0122     		movs	r2, #1
 221 0026 01A9     		add	r1, sp, #4
 222 0028 0348     		ldr	r0, .L18
 223 002a FFF7FEFF 		bl	HAL_UART_Transmit
 224              	.LVL17:
 113:Src/main.c    ****   }
 225              		.loc 1 113 0 discriminator 1
 226 002e 4FF47A70 		mov	r0, #1000
 227 0032 FFF7FEFF 		bl	HAL_Delay
 228              	.LVL18:
 229 0036 F3E7     		b	.L16
 230              	.L19:
 231              		.align	2
 232              	.L18:
 233 0038 00000000 		.word	huart2
 234              		.cfi_endproc
 235              	.LFE66:
 237              		.section	.rodata.SystemClock_Config.str1.4,"aMS",%progbits,1
 238              		.align	2
 239              	.LC0:
 240 0000 5372632F 		.ascii	"Src/main.c\000"
 240      6D61696E 
 240      2E6300
 241              		.text
 242              	.Letext0:
 243              		.file 2 "/home/logic/STM32Toolchain/gcc-arm/arm-none-eabi/include/machine/_default_types.h"
 244              		.file 3 "/home/logic/STM32Toolchain/gcc-arm/arm-none-eabi/include/sys/_stdint.h"
 245              		.file 4 "Drivers/CMSIS/Include/core_cm3.h"
 246              		.file 5 "Drivers/CMSIS/Device/ST/STM32F1xx/Include/system_stm32f1xx.h"
 247              		.file 6 "Drivers/CMSIS/Device/ST/STM32F1xx/Include/stm32f103xb.h"
 248              		.file 7 "/home/logic/STM32Toolchain/gcc-arm/arm-none-eabi/include/sys/lock.h"
 249              		.file 8 "/home/logic/STM32Toolchain/gcc-arm/arm-none-eabi/include/sys/_types.h"
 250              		.file 9 "/home/logic/STM32Toolchain/gcc-arm/lib/gcc/arm-none-eabi/7.3.1/include/stddef.h"
 251              		.file 10 "/home/logic/STM32Toolchain/gcc-arm/arm-none-eabi/include/sys/reent.h"
ARM GAS  /tmp/cczHIwqL.s 			page 9


 252              		.file 11 "Drivers/STM32F1xx_HAL_Driver/Inc/stm32f1xx_hal_def.h"
 253              		.file 12 "Drivers/STM32F1xx_HAL_Driver/Inc/stm32f1xx_hal_rcc.h"
 254              		.file 13 "Drivers/STM32F1xx_HAL_Driver/Inc/stm32f1xx_hal_rcc_ex.h"
 255              		.file 14 "Drivers/STM32F1xx_HAL_Driver/Inc/stm32f1xx_hal_dma.h"
 256              		.file 15 "Drivers/STM32F1xx_HAL_Driver/Inc/stm32f1xx_hal_uart.h"
 257              		.file 16 "Inc/usart.h"
 258              		.file 17 "Drivers/STM32F1xx_HAL_Driver/Inc/stm32f1xx_hal_cortex.h"
 259              		.file 18 "Drivers/STM32F1xx_HAL_Driver/Inc/stm32f1xx_hal_gpio.h"
 260              		.file 19 "Drivers/STM32F1xx_HAL_Driver/Inc/stm32f1xx_hal.h"
 261              		.file 20 "Inc/gpio.h"
ARM GAS  /tmp/cczHIwqL.s 			page 10

